; Function Attrs: null_pointer_is_valid sspstrong uwtable
define internal void @obex_profile_prompt(ptr noundef %0, ptr noundef %1) #0 {
  %3 = getelementptr inbounds nuw i8, ptr %0, i64 408
  %4 = load ptr, ptr %3, align 8
  %5 = load i32, ptr @proto_obex, align 4
  %6 = tail call ptr @p_get_proto_data(ptr noundef %4, ptr noundef %0, i32 noundef %5, i32 noundef 1)
  %.not = icmp eq ptr %6, null
  br i1 %.not, label %11, label %7

7:                                                ; preds = %2
  %8 = load i8, ptr %6, align 1
  %9 = zext i8 %8 to i32
  %10 = tail call i32 (ptr, i64, i32, i64, ptr, ...) @__snprintf_chk(ptr noundef %1, i64 noundef 200, i32 noundef 2, i64 noundef -1, ptr noundef nonnull @.str.725, i32 noundef %9)
  br label %13

11:                                               ; preds = %2
  %12 = tail call i32 (ptr, i64, i32, i64, ptr, ...) @__snprintf_chk(ptr noundef %1, i64 noundef 200, i32 noundef 2, i64 noundef -1, ptr noundef nonnull @.str.726)
  br label %13

13:                                               ; preds = %11, %7
  ret void
}